target datalayout = "e-m:e-p270:32:32-p271:32:32-p272:64:64-i64:64-i128:128-f80:128-n8:16:32:64-S128"
target triple = "x86_64-pc-linux-gnu"

%struct.eio_obj = type { i32, ptr, ptr, i8 }
%struct.io_hdr_t = type { i32, i16, i16, i32 }
%struct.client_io_t = type { i32, i32, i8, i32, i32, i32, ptr, i8, %union.pthread_cond_t, %union.pthread_mutex_t, i32, ptr, ptr, ptr, %union.pthread_mutex_t, ptr, i32, ptr, ptr, ptr, ptr, ptr, ptr, i32, i32, ptr }
%union.pthread_cond_t = type { %struct.__pthread_cond_s }
%struct.__pthread_cond_s = type { %union.__atomic_wide_counter, %union.__atomic_wide_counter, [2 x i32], [2 x i32], i32, i32, [2 x i32] }
%union.__atomic_wide_counter = type { i64 }
%union.pthread_mutex_t = type { %struct.__pthread_mutex_s }
%struct.__pthread_mutex_s = type { i32, i32, i32, i32, i32, i16, i16, %struct.__pthread_internal_list }
%struct.__pthread_internal_list = type { ptr, ptr }
%struct.io_buf = type { i32, i32, ptr, %struct.io_hdr_t }
%struct.file_write_info = type { ptr, ptr, ptr, i32, i32, i32, i8 }

@.str.59 = private unnamed_addr constant [12 x i8] c"Entering %s\00", align 1
@__func__._file_write = private unnamed_addr constant [12 x i8] c"_file_write\00", align 1
@.str.60 = private unnamed_addr constant [25 x i8] c"%s: nothing in the queue\00", align 1
@.str.61 = private unnamed_addr constant [17 x i8] c"  wrote %d bytes\00", align 1
@.str.62 = private unnamed_addr constant [12 x i8] c"Leaving  %s\00", align 1

; Function Attrs: nounwind uwtable
define internal i32 @_file_write(ptr noundef %0, ptr noundef %1) #0 {
  %3 = alloca i32, align 4
  %4 = alloca ptr, align 8
  %5 = alloca ptr, align 8
  %6 = alloca ptr, align 8
  %7 = alloca ptr, align 8
  %8 = alloca i32, align 4
  %9 = alloca i32, align 4
  store ptr %0, ptr %4, align 8
  store ptr %1, ptr %5, align 8
  call void @llvm.lifetime.start.p0(i64 8, ptr %6) #9
  %10 = load ptr, ptr %4, align 8
  %11 = getelementptr inbounds nuw %struct.eio_obj, ptr %10, i32 0, i32 1
  %12 = load ptr, ptr %11, align 8
  store ptr %12, ptr %6, align 8
  call void @llvm.lifetime.start.p0(i64 8, ptr %7) #9
  call void @llvm.lifetime.start.p0(i64 4, ptr %8) #9
  br label %13

13:                                               ; preds = %2
  br label %14

14:                                               ; preds = %13
  %15 = call i32 @get_log_level()
  %16 = icmp sge i32 %15, 6
  br i1 %16, label %17, label %18

17:                                               ; preds = %14
  call void (i32, ptr, ...) @log_var(i32 noundef 6, ptr noundef @.str.59, ptr noundef @__func__._file_write)
  br label %18

18:                                               ; preds = %17, %14
  br label %19

19:                                               ; preds = %18
  br label %20

20:                                               ; preds = %19
  br label %21

21:                                               ; preds = %20
  br label %22

22:                                               ; preds = %21
  %23 = load ptr, ptr %6, align 8
  %24 = getelementptr inbounds nuw %struct.file_write_info, ptr %23, i32 0, i32 2
  %25 = load ptr, ptr %24, align 8
  %26 = icmp eq ptr %25, null
  br i1 %26, label %27, label %57

27:                                               ; preds = %22
  %28 = load ptr, ptr %6, align 8
  %29 = getelementptr inbounds nuw %struct.file_write_info, ptr %28, i32 0, i32 1
  %30 = load ptr, ptr %29, align 8
  %31 = call ptr @list_dequeue(ptr noundef %30)
  %32 = load ptr, ptr %6, align 8
  %33 = getelementptr inbounds nuw %struct.file_write_info, ptr %32, i32 0, i32 2
  store ptr %31, ptr %33, align 8
  %34 = load ptr, ptr %6, align 8
  %35 = getelementptr inbounds nuw %struct.file_write_info, ptr %34, i32 0, i32 2
  %36 = load ptr, ptr %35, align 8
  %37 = icmp eq ptr %36, null
  br i1 %37, label %38, label %49

38:                                               ; preds = %27
  br label %39

39:                                               ; preds = %38
  br label %40

40:                                               ; preds = %39
  %41 = call i32 @get_log_level()
  %42 = icmp sge i32 %41, 7
  br i1 %42, label %43, label %44

43:                                               ; preds = %40
  call void (i32, ptr, ...) @log_var(i32 noundef 7, ptr noundef @.str.60, ptr noundef @__func__._file_write)
  br label %44

44:                                               ; preds = %43, %40
  br label %45

45:                                               ; preds = %44
  br label %46

46:                                               ; preds = %45
  br label %47

47:                                               ; preds = %46
  br label %48

48:                                               ; preds = %47
  store i32 0, ptr %3, align 4
  store i32 1, ptr %9, align 4
  br label %206

49:                                               ; preds = %27
  %50 = load ptr, ptr %6, align 8
  %51 = getelementptr inbounds nuw %struct.file_write_info, ptr %50, i32 0, i32 2
  %52 = load ptr, ptr %51, align 8
  %53 = getelementptr inbounds nuw %struct.io_buf, ptr %52, i32 0, i32 1
  %54 = load i32, ptr %53, align 4
  %55 = load ptr, ptr %6, align 8
  %56 = getelementptr inbounds nuw %struct.file_write_info, ptr %55, i32 0, i32 3
  store i32 %54, ptr %56, align 8
  br label %57

57:                                               ; preds = %49, %22
  %58 = load ptr, ptr %6, align 8
  %59 = getelementptr inbounds nuw %struct.file_write_info, ptr %58, i32 0, i32 4
  %60 = load i32, ptr %59, align 4
  %61 = icmp ne i32 %60, -1
  br i1 %61, label %62, label %75

62:                                               ; preds = %57
  %63 = load ptr, ptr %6, align 8
  %64 = getelementptr inbounds nuw %struct.file_write_info, ptr %63, i32 0, i32 2
  %65 = load ptr, ptr %64, align 8
  %66 = getelementptr inbounds nuw %struct.io_buf, ptr %65, i32 0, i32 3
  %67 = getelementptr inbounds nuw %struct.io_hdr_t, ptr %66, i32 0, i32 1
  %68 = load i16, ptr %67, align 4
  %69 = zext i16 %68 to i32
  %70 = load ptr, ptr %6, align 8
  %71 = getelementptr inbounds nuw %struct.file_write_info, ptr %70, i32 0, i32 4
  %72 = load i32, ptr %71, align 4
  %73 = icmp ne i32 %69, %72
  br i1 %73, label %74, label %75

74:                                               ; preds = %62
  br label %171

75:                                               ; preds = %62, %57
  %76 = load ptr, ptr %6, align 8
  %77 = getelementptr inbounds nuw %struct.file_write_info, ptr %76, i32 0, i32 6
  %78 = load i8, ptr %77, align 4, !range !8, !noundef !9
  %79 = trunc i8 %78 to i1
  br i1 %79, label %170, label %80

80:                                               ; preds = %75
  %81 = load ptr, ptr %6, align 8
  %82 = getelementptr inbounds nuw %struct.file_write_info, ptr %81, i32 0, i32 2
  %83 = load ptr, ptr %82, align 8
  %84 = getelementptr inbounds nuw %struct.io_buf, ptr %83, i32 0, i32 2
  %85 = load ptr, ptr %84, align 8
  %86 = load ptr, ptr %6, align 8
  %87 = getelementptr inbounds nuw %struct.file_write_info, ptr %86, i32 0, i32 2
  %88 = load ptr, ptr %87, align 8
  %89 = getelementptr inbounds nuw %struct.io_buf, ptr %88, i32 0, i32 1
  %90 = load i32, ptr %89, align 4
  %91 = load ptr, ptr %6, align 8
  %92 = getelementptr inbounds nuw %struct.file_write_info, ptr %91, i32 0, i32 3
  %93 = load i32, ptr %92, align 8
  %94 = sub i32 %90, %93
  %95 = zext i32 %94 to i64
  %96 = getelementptr inbounds nuw i8, ptr %85, i64 %95
  store ptr %96, ptr %7, align 8
  %97 = load ptr, ptr %4, align 8
  %98 = getelementptr inbounds nuw %struct.eio_obj, ptr %97, i32 0, i32 0
  %99 = load i32, ptr %98, align 8
  %100 = load ptr, ptr %7, align 8
  %101 = load ptr, ptr %6, align 8
  %102 = getelementptr inbounds nuw %struct.file_write_info, ptr %101, i32 0, i32 3
  %103 = load i32, ptr %102, align 8
  %104 = load ptr, ptr %6, align 8
  %105 = getelementptr inbounds nuw %struct.file_write_info, ptr %104, i32 0, i32 2
  %106 = load ptr, ptr %105, align 8
  %107 = getelementptr inbounds nuw %struct.io_buf, ptr %106, i32 0, i32 3
  %108 = getelementptr inbounds nuw %struct.io_hdr_t, ptr %107, i32 0, i32 1
  %109 = load i16, ptr %108, align 4
  %110 = zext i16 %109 to i32
  %111 = load ptr, ptr %6, align 8
  %112 = getelementptr inbounds nuw %struct.file_write_info, ptr %111, i32 0, i32 0
  %113 = load ptr, ptr %112, align 8
  %114 = getelementptr inbounds nuw %struct.client_io_t, ptr %113, i32 0, i32 4
  %115 = load i32, ptr %114, align 8
  %116 = load ptr, ptr %6, align 8
  %117 = getelementptr inbounds nuw %struct.file_write_info, ptr %116, i32 0, i32 0
  %118 = load ptr, ptr %117, align 8
  %119 = getelementptr inbounds nuw %struct.client_io_t, ptr %118, i32 0, i32 5
  %120 = load i32, ptr %119, align 4
  %121 = load ptr, ptr %6, align 8
  %122 = getelementptr inbounds nuw %struct.file_write_info, ptr %121, i32 0, i32 0
  %123 = load ptr, ptr %122, align 8
  %124 = getelementptr inbounds nuw %struct.client_io_t, ptr %123, i32 0, i32 2
  %125 = load i8, ptr %124, align 8, !range !8, !noundef !9
  %126 = trunc i8 %125 to i1
  %127 = load ptr, ptr %6, align 8
  %128 = getelementptr inbounds nuw %struct.file_write_info, ptr %127, i32 0, i32 0
  %129 = load ptr, ptr %128, align 8
  %130 = getelementptr inbounds nuw %struct.client_io_t, ptr %129, i32 0, i32 3
  %131 = load i32, ptr %130, align 4
  %132 = call i32 @write_labelled_message(i32 noundef %99, ptr noundef %100, i32 noundef %103, i32 noundef %110, i32 noundef %115, i32 noundef %120, i1 noundef zeroext %126, i32 noundef %131)
  store i32 %132, ptr %8, align 4
  %133 = icmp slt i32 %132, 0
  br i1 %133, label %134, label %147

134:                                              ; preds = %80
  %135 = load ptr, ptr %6, align 8
  %136 = getelementptr inbounds nuw %struct.file_write_info, ptr %135, i32 0, i32 0
  %137 = load ptr, ptr %136, align 8
  %138 = getelementptr inbounds nuw %struct.client_io_t, ptr %137, i32 0, i32 22
  %139 = load ptr, ptr %138, align 8
  %140 = load ptr, ptr %6, align 8
  %141 = getelementptr inbounds nuw %struct.file_write_info, ptr %140, i32 0, i32 2
  %142 = load ptr, ptr %141, align 8
  call void @list_enqueue(ptr noundef %139, ptr noundef %142)
  %143 = load ptr, ptr %6, align 8
  %144 = getelementptr inbounds nuw %struct.file_write_info, ptr %143, i32 0, i32 2
  store ptr null, ptr %144, align 8
  %145 = load ptr, ptr %6, align 8
  %146 = getelementptr inbounds nuw %struct.file_write_info, ptr %145, i32 0, i32 6
  store i8 1, ptr %146, align 4
  store i32 -1, ptr %3, align 4
  store i32 1, ptr %9, align 4
  br label %206

147:                                              ; preds = %80
  br label %148

148:                                              ; preds = %147
  br label %149

149:                                              ; preds = %148
  %150 = call i32 @get_log_level()
  %151 = icmp sge i32 %150, 7
  br i1 %151, label %152, label %154

152:                                              ; preds = %149
  %153 = load i32, ptr %8, align 4
  call void (i32, ptr, ...) @log_var(i32 noundef 7, ptr noundef @.str.61, i32 noundef %153)
  br label %154

154:                                              ; preds = %152, %149
  br label %155

155:                                              ; preds = %154
  br label %156

156:                                              ; preds = %155
  br label %157

157:                                              ; preds = %156
  br label %158

158:                                              ; preds = %157
  %159 = load i32, ptr %8, align 4
  %160 = load ptr, ptr %6, align 8
  %161 = getelementptr inbounds nuw %struct.file_write_info, ptr %160, i32 0, i32 3
  %162 = load i32, ptr %161, align 8
  %163 = sub nsw i32 %162, %159
  store i32 %163, ptr %161, align 8
  %164 = load ptr, ptr %6, align 8
  %165 = getelementptr inbounds nuw %struct.file_write_info, ptr %164, i32 0, i32 3
  %166 = load i32, ptr %165, align 8
  %167 = icmp sgt i32 %166, 0
  br i1 %167, label %168, label %169

168:                                              ; preds = %158
  store i32 0, ptr %3, align 4
  store i32 1, ptr %9, align 4
  br label %206

169:                                              ; preds = %158
  br label %170

170:                                              ; preds = %169, %75
  br label %171

171:                                              ; preds = %170, %74
  %172 = load ptr, ptr %6, align 8
  %173 = getelementptr inbounds nuw %struct.file_write_info, ptr %172, i32 0, i32 2
  %174 = load ptr, ptr %173, align 8
  %175 = getelementptr inbounds nuw %struct.io_buf, ptr %174, i32 0, i32 0
  %176 = load i32, ptr %175, align 8
  %177 = add nsw i32 %176, -1
  store i32 %177, ptr %175, align 8
  %178 = load ptr, ptr %6, align 8
  %179 = getelementptr inbounds nuw %struct.file_write_info, ptr %178, i32 0, i32 2
  %180 = load ptr, ptr %179, align 8
  %181 = getelementptr inbounds nuw %struct.io_buf, ptr %180, i32 0, i32 0
  %182 = load i32, ptr %181, align 8
  %183 = icmp eq i32 %182, 0
  br i1 %183, label %184, label %193

184:                                              ; preds = %171
  %185 = load ptr, ptr %6, align 8
  %186 = getelementptr inbounds nuw %struct.file_write_info, ptr %185, i32 0, i32 0
  %187 = load ptr, ptr %186, align 8
  %188 = getelementptr inbounds nuw %struct.client_io_t, ptr %187, i32 0, i32 22
  %189 = load ptr, ptr %188, align 8
  %190 = load ptr, ptr %6, align 8
  %191 = getelementptr inbounds nuw %struct.file_write_info, ptr %190, i32 0, i32 2
  %192 = load ptr, ptr %191, align 8
  call void @list_enqueue(ptr noundef %189, ptr noundef %192)
  br label %193

193:                                              ; preds = %184, %171
  %194 = load ptr, ptr %6, align 8
  %195 = getelementptr inbounds nuw %struct.file_write_info, ptr %194, i32 0, i32 2
  store ptr null, ptr %195, align 8
  br label %196

196:                                              ; preds = %193
  br label %197

197:                                              ; preds = %196
  %198 = call i32 @get_log_level()
  %199 = icmp sge i32 %198, 6
  br i1 %199, label %200, label %201

200:                                              ; preds = %197
  call void (i32, ptr, ...) @log_var(i32 noundef 6, ptr noundef @.str.62, ptr noundef @__func__._file_write)
  br label %201

201:                                              ; preds = %200, %197
  br label %202

202:                                              ; preds = %201
  br label %203

203:                                              ; preds = %202
  br label %204

204:                                              ; preds = %203
  br label %205

205:                                              ; preds = %204
  store i32 0, ptr %3, align 4
  store i32 1, ptr %9, align 4
  br label %206

206:                                              ; preds = %205, %168, %134, %48
  call void @llvm.lifetime.end.p0(i64 4, ptr %8) #9
  call void @llvm.lifetime.end.p0(i64 8, ptr %7) #9
  call void @llvm.lifetime.end.p0(i64 8, ptr %6) #9
  %207 = load i32, ptr %3, align 4
  ret i32 %207
}