; Function Attrs: nounwind uwtable
define internal range(i32 -1, 1) i32 @_file_write(ptr noundef readonly captures(none) %0, ptr readnone captures(none) %1) #0 {
  %3 = getelementptr inbounds nuw i8, ptr %0, i64 8
  %4 = load ptr, ptr %3, align 8
  %5 = tail call i32 @get_log_level() #10
  %6 = icmp sgt i32 %5, 5
  br i1 %6, label %7, label %8

7:                                                ; preds = %2
  tail call void (i32, ptr, ...) @log_var(i32 noundef 6, ptr noundef nonnull @.str.59, ptr noundef nonnull @__func__._file_write) #10
  br label %8

8:                                                ; preds = %7, %2
  %9 = getelementptr inbounds nuw i8, ptr %4, i64 16
  %10 = load ptr, ptr %9, align 8
  %11 = icmp eq ptr %10, null
  br i1 %11, label %12, label %25

12:                                               ; preds = %8
  %13 = getelementptr inbounds nuw i8, ptr %4, i64 8
  %14 = load ptr, ptr %13, align 8
  %15 = tail call ptr @list_dequeue(ptr noundef %14) #10
  store ptr %15, ptr %9, align 8
  %16 = icmp eq ptr %15, null
  br i1 %16, label %17, label %21

17:                                               ; preds = %12
  %18 = tail call i32 @get_log_level() #10
  %19 = icmp sgt i32 %18, 6
  br i1 %19, label %20, label %91

20:                                               ; preds = %17
  tail call void (i32, ptr, ...) @log_var(i32 noundef 7, ptr noundef nonnull @.str.60, ptr noundef nonnull @__func__._file_write) #10
  br label %91

21:                                               ; preds = %12
  %22 = getelementptr inbounds nuw i8, ptr %15, i64 4
  %23 = load i32, ptr %22, align 4
  %24 = getelementptr inbounds nuw i8, ptr %4, i64 24
  store i32 %23, ptr %24, align 8
  br label %25

25:                                               ; preds = %21, %8
  %26 = phi ptr [ %15, %21 ], [ %10, %8 ]
  %27 = getelementptr inbounds nuw i8, ptr %4, i64 28
  %28 = load i32, ptr %27, align 4
  %.not = icmp eq i32 %28, -1
  br i1 %.not, label %33, label %29

29:                                               ; preds = %25
  %30 = getelementptr inbounds nuw i8, ptr %26, i64 20
  %31 = load i16, ptr %30, align 4
  %32 = zext i16 %31 to i32
  %.not38 = icmp eq i32 %28, %32
  br i1 %.not38, label %33, label %76

33:                                               ; preds = %29, %25
  %34 = getelementptr inbounds nuw i8, ptr %4, i64 36
  %35 = load i8, ptr %34, align 4, !range !8, !noundef !9
  %36 = trunc nuw i8 %35 to i1
  br i1 %36, label %76, label %37

37:                                               ; preds = %33
  %38 = getelementptr inbounds nuw i8, ptr %26, i64 8
  %39 = load ptr, ptr %38, align 8
  %40 = getelementptr inbounds nuw i8, ptr %26, i64 4
  %41 = load i32, ptr %40, align 4
  %42 = getelementptr inbounds nuw i8, ptr %4, i64 24
  %43 = load i32, ptr %42, align 8
  %44 = sub i32 %41, %43
  %45 = zext i32 %44 to i64
  %46 = getelementptr inbounds nuw i8, ptr %39, i64 %45
  %47 = load i32, ptr %0, align 8
  %48 = getelementptr inbounds nuw i8, ptr %26, i64 20
  %49 = load i16, ptr %48, align 4
  %50 = zext i16 %49 to i32
  %51 = load ptr, ptr %4, align 8
  %52 = getelementptr inbounds nuw i8, ptr %51, i64 16
  %53 = load i32, ptr %52, align 8
  %54 = getelementptr inbounds nuw i8, ptr %51, i64 20
  %55 = load i32, ptr %54, align 4
  %56 = getelementptr inbounds nuw i8, ptr %51, i64 8
  %57 = load i8, ptr %56, align 8, !range !8, !noundef !9
  %58 = trunc nuw i8 %57 to i1
  %59 = getelementptr inbounds nuw i8, ptr %51, i64 12
  %60 = load i32, ptr %59, align 4
  %61 = tail call i32 @write_labelled_message(i32 noundef %47, ptr noundef %46, i32 noundef %43, i32 noundef %50, i32 noundef %53, i32 noundef %55, i1 noundef zeroext %58, i32 noundef %60) #10
  %62 = icmp slt i32 %61, 0
  br i1 %62, label %63, label %68

63:                                               ; preds = %37
  %64 = load ptr, ptr %4, align 8
  %65 = getelementptr inbounds nuw i8, ptr %64, i64 256
  %66 = load ptr, ptr %65, align 8
  %67 = load ptr, ptr %9, align 8
  tail call void @list_enqueue(ptr noundef %66, ptr noundef %67) #10
  store ptr null, ptr %9, align 8
  store i8 1, ptr %34, align 4
  br label %91

68:                                               ; preds = %37
  %69 = tail call i32 @get_log_level() #10
  %70 = icmp sgt i32 %69, 6
  br i1 %70, label %71, label %72

71:                                               ; preds = %68
  tail call void (i32, ptr, ...) @log_var(i32 noundef 7, ptr noundef nonnull @.str.61, i32 noundef %61) #10
  br label %72

72:                                               ; preds = %71, %68
  %73 = load i32, ptr %42, align 8
  %74 = sub nsw i32 %73, %61
  store i32 %74, ptr %42, align 8
  %75 = icmp sgt i32 %74, 0
  br i1 %75, label %91, label %._crit_edge

._crit_edge:                                      ; preds = %72
  %.pre = load ptr, ptr %9, align 8
  br label %76

76:                                               ; preds = %._crit_edge, %33, %29
  %77 = phi ptr [ %.pre, %._crit_edge ], [ %26, %33 ], [ %26, %29 ]
  %78 = load i32, ptr %77, align 8
  %79 = add nsw i32 %78, -1
  store i32 %79, ptr %77, align 8
  %80 = load ptr, ptr %9, align 8
  %81 = load i32, ptr %80, align 8
  %82 = icmp eq i32 %81, 0
  br i1 %82, label %83, label %87

83:                                               ; preds = %76
  %84 = load ptr, ptr %4, align 8
  %85 = getelementptr inbounds nuw i8, ptr %84, i64 256
  %86 = load ptr, ptr %85, align 8
  tail call void @list_enqueue(ptr noundef %86, ptr noundef nonnull %80) #10
  br label %87

87:                                               ; preds = %83, %76
  store ptr null, ptr %9, align 8
  %88 = tail call i32 @get_log_level() #10
  %89 = icmp sgt i32 %88, 5
  br i1 %89, label %90, label %91

90:                                               ; preds = %87
  tail call void (i32, ptr, ...) @log_var(i32 noundef 6, ptr noundef nonnull @.str.62, ptr noundef nonnull @__func__._file_write) #10
  br label %91

91:                                               ; preds = %87, %90, %72, %17, %20, %63
  %.0 = phi i32 [ -1, %63 ], [ 0, %20 ], [ 0, %17 ], [ 0, %72 ], [ 0, %90 ], [ 0, %87 ]
  ret i32 %.0
}